target datalayout = "e-m:e-p270:32:32-p271:32:32-p272:64:64-i64:64-i128:128-f80:128-n8:16:32:64-S128"
target triple = "x86_64-pc-linux-gnu"

%"class.Json::Value" = type { %"union.Json::Value::ValueHolder", %struct.anon, %"class.Json::Value::Comments", i64, i64 }
%"union.Json::Value::ValueHolder" = type { i64 }
%struct.anon = type { i16, [2 x i8] }
%"class.Json::Value::Comments" = type { %"class.std::unique_ptr" }
%"class.std::unique_ptr" = type { %"struct.std::__uniq_ptr_data" }
%"struct.std::__uniq_ptr_data" = type { %"class.std::__uniq_ptr_impl" }
%"class.std::__uniq_ptr_impl" = type { %"class.std::tuple" }
%"class.std::tuple" = type { %"struct.std::_Tuple_impl" }
%"struct.std::_Tuple_impl" = type { %"struct.std::_Head_base.56" }
%"struct.std::_Head_base.56" = type { ptr }
%"class.open3d::visualization::ViewParameters" = type { %"class.open3d::utility::IJsonConvertible", double, double, %"class.Eigen::Matrix.3", %"class.Eigen::Matrix.3", %"class.Eigen::Matrix.3", %"class.Eigen::Matrix.3", %"class.Eigen::Matrix.3" }
%"class.open3d::utility::IJsonConvertible" = type { ptr }
%"class.Eigen::Matrix.3" = type { %"class.Eigen::PlainObjectBase.4" }
%"class.Eigen::PlainObjectBase.4" = type { %"class.Eigen::DenseStorage.11" }
%"class.Eigen::DenseStorage.11" = type { %"struct.Eigen::internal::plain_array.12" }
%"struct.Eigen::internal::plain_array.12" = type { [3 x double] }

@.str = private unnamed_addr constant [14 x i8] c"field_of_view\00", align 1
@.str.3 = private unnamed_addr constant [5 x i8] c"zoom\00", align 1
@.str.4 = private unnamed_addr constant [7 x i8] c"lookat\00", align 1
@.str.5 = private unnamed_addr constant [3 x i8] c"up\00", align 1
@.str.6 = private unnamed_addr constant [6 x i8] c"front\00", align 1
@.str.7 = private unnamed_addr constant [16 x i8] c"boundingbox_min\00", align 1
@.str.8 = private unnamed_addr constant [16 x i8] c"boundingbox_max\00", align 1

; Function Attrs: mustprogress ssp uwtable
define noundef zeroext i1 @_ZNK6open3d13visualization14ViewParameters18ConvertToJsonValueERN4Json5ValueE(ptr noundef nonnull align 8 dereferenceable(144) %0, ptr noundef nonnull align 8 dereferenceable(40) %1) unnamed_addr #1 align 2 personality ptr @__gxx_personality_v0 {
  %3 = alloca i1, align 1
  %4 = alloca ptr, align 8
  %5 = alloca ptr, align 8
  %6 = alloca %"class.Json::Value", align 8
  %7 = alloca ptr, align 8
  %8 = alloca i32, align 4
  %9 = alloca %"class.Json::Value", align 8
  store ptr %0, ptr %4, align 8, !tbaa !9
  store ptr %1, ptr %5, align 8, !tbaa !11
  %10 = load ptr, ptr %4, align 8
  call void @llvm.lifetime.start.p0(i64 40, ptr %6) #17
  %11 = getelementptr inbounds nuw %"class.open3d::visualization::ViewParameters", ptr %10, i32 0, i32 1
  %12 = load double, ptr %11, align 8, !tbaa !13
  call void @_ZN4Json5ValueC1Ed(ptr noundef nonnull align 8 dereferenceable(40) %6, double noundef %12)
  %13 = load ptr, ptr %5, align 8, !tbaa !11
  %14 = invoke noundef nonnull align 8 dereferenceable(40) ptr @_ZN4Json5ValueixEPKc(ptr noundef nonnull align 8 dereferenceable(40) %13, ptr noundef @.str)
          to label %15 unwind label %30

15:                                               ; preds = %2
  %16 = invoke noundef nonnull align 8 dereferenceable(40) ptr @_ZN4Json5ValueaSEOS0_(ptr noundef nonnull align 8 dereferenceable(40) %14, ptr noundef nonnull align 8 dereferenceable(40) %6)
          to label %17 unwind label %30

17:                                               ; preds = %15
  call void @_ZN4Json5ValueD1Ev(ptr noundef nonnull align 8 dereferenceable(40) %6) #17
  call void @llvm.lifetime.end.p0(i64 40, ptr %6) #17
  call void @llvm.lifetime.start.p0(i64 40, ptr %9) #17
  %18 = getelementptr inbounds nuw %"class.open3d::visualization::ViewParameters", ptr %10, i32 0, i32 2
  %19 = load double, ptr %18, align 8, !tbaa !21
  call void @_ZN4Json5ValueC1Ed(ptr noundef nonnull align 8 dereferenceable(40) %9, double noundef %19)
  %20 = load ptr, ptr %5, align 8, !tbaa !11
  %21 = invoke noundef nonnull align 8 dereferenceable(40) ptr @_ZN4Json5ValueixEPKc(ptr noundef nonnull align 8 dereferenceable(40) %20, ptr noundef @.str.3)
          to label %22 unwind label %34

22:                                               ; preds = %17
  %23 = invoke noundef nonnull align 8 dereferenceable(40) ptr @_ZN4Json5ValueaSEOS0_(ptr noundef nonnull align 8 dereferenceable(40) %21, ptr noundef nonnull align 8 dereferenceable(40) %9)
          to label %24 unwind label %34

24:                                               ; preds = %22
  call void @_ZN4Json5ValueD1Ev(ptr noundef nonnull align 8 dereferenceable(40) %9) #17
  call void @llvm.lifetime.end.p0(i64 40, ptr %9) #17
  %25 = getelementptr inbounds nuw %"class.open3d::visualization::ViewParameters", ptr %10, i32 0, i32 3
  %26 = load ptr, ptr %5, align 8, !tbaa !11
  %27 = call noundef nonnull align 8 dereferenceable(40) ptr @_ZN4Json5ValueixEPKc(ptr noundef nonnull align 8 dereferenceable(40) %26, ptr noundef @.str.4)
  %28 = call noundef zeroext i1 @_ZN6open3d7utility16IJsonConvertible24EigenVector3dToJsonArrayERKN5Eigen6MatrixIdLi3ELi1ELi0ELi3ELi1EEERN4Json5ValueE(ptr noundef nonnull align 8 dereferenceable(24) %25, ptr noundef nonnull align 8 dereferenceable(40) %27)
  br i1 %28, label %38, label %29

29:                                               ; preds = %24
  store i1 false, ptr %3, align 1
  br label %63

30:                                               ; preds = %15, %2
  %31 = landingpad { ptr, i32 }
          cleanup
  %32 = extractvalue { ptr, i32 } %31, 0
  store ptr %32, ptr %7, align 8
  %33 = extractvalue { ptr, i32 } %31, 1
  store i32 %33, ptr %8, align 4
  call void @_ZN4Json5ValueD1Ev(ptr noundef nonnull align 8 dereferenceable(40) %6) #17
  call void @llvm.lifetime.end.p0(i64 40, ptr %6) #17
  br label %65

34:                                               ; preds = %22, %17
  %35 = landingpad { ptr, i32 }
          cleanup
  %36 = extractvalue { ptr, i32 } %35, 0
  store ptr %36, ptr %7, align 8
  %37 = extractvalue { ptr, i32 } %35, 1
  store i32 %37, ptr %8, align 4
  call void @_ZN4Json5ValueD1Ev(ptr noundef nonnull align 8 dereferenceable(40) %9) #17
  call void @llvm.lifetime.end.p0(i64 40, ptr %9) #17
  br label %65

38:                                               ; preds = %24
  %39 = getelementptr inbounds nuw %"class.open3d::visualization::ViewParameters", ptr %10, i32 0, i32 4
  %40 = load ptr, ptr %5, align 8, !tbaa !11
  %41 = call noundef nonnull align 8 dereferenceable(40) ptr @_ZN4Json5ValueixEPKc(ptr noundef nonnull align 8 dereferenceable(40) %40, ptr noundef @.str.5)
  %42 = call noundef zeroext i1 @_ZN6open3d7utility16IJsonConvertible24EigenVector3dToJsonArrayERKN5Eigen6MatrixIdLi3ELi1ELi0ELi3ELi1EEERN4Json5ValueE(ptr noundef nonnull align 8 dereferenceable(24) %39, ptr noundef nonnull align 8 dereferenceable(40) %41)
  br i1 %42, label %44, label %43

43:                                               ; preds = %38
  store i1 false, ptr %3, align 1
  br label %63

44:                                               ; preds = %38
  %45 = getelementptr inbounds nuw %"class.open3d::visualization::ViewParameters", ptr %10, i32 0, i32 5
  %46 = load ptr, ptr %5, align 8, !tbaa !11
  %47 = call noundef nonnull align 8 dereferenceable(40) ptr @_ZN4Json5ValueixEPKc(ptr noundef nonnull align 8 dereferenceable(40) %46, ptr noundef @.str.6)
  %48 = call noundef zeroext i1 @_ZN6open3d7utility16IJsonConvertible24EigenVector3dToJsonArrayERKN5Eigen6MatrixIdLi3ELi1ELi0ELi3ELi1EEERN4Json5ValueE(ptr noundef nonnull align 8 dereferenceable(24) %45, ptr noundef nonnull align 8 dereferenceable(40) %47)
  br i1 %48, label %50, label %49

49:                                               ; preds = %44
  store i1 false, ptr %3, align 1
  br label %63

50:                                               ; preds = %44
  %51 = getelementptr inbounds nuw %"class.open3d::visualization::ViewParameters", ptr %10, i32 0, i32 6
  %52 = load ptr, ptr %5, align 8, !tbaa !11
  %53 = call noundef nonnull align 8 dereferenceable(40) ptr @_ZN4Json5ValueixEPKc(ptr noundef nonnull align 8 dereferenceable(40) %52, ptr noundef @.str.7)
  %54 = call noundef zeroext i1 @_ZN6open3d7utility16IJsonConvertible24EigenVector3dToJsonArrayERKN5Eigen6MatrixIdLi3ELi1ELi0ELi3ELi1EEERN4Json5ValueE(ptr noundef nonnull align 8 dereferenceable(24) %51, ptr noundef nonnull align 8 dereferenceable(40) %53)
  br i1 %54, label %56, label %55

55:                                               ; preds = %50
  store i1 false, ptr %3, align 1
  br label %63

56:                                               ; preds = %50
  %57 = getelementptr inbounds nuw %"class.open3d::visualization::ViewParameters", ptr %10, i32 0, i32 7
  %58 = load ptr, ptr %5, align 8, !tbaa !11
  %59 = call noundef nonnull align 8 dereferenceable(40) ptr @_ZN4Json5ValueixEPKc(ptr noundef nonnull align 8 dereferenceable(40) %58, ptr noundef @.str.8)
  %60 = call noundef zeroext i1 @_ZN6open3d7utility16IJsonConvertible24EigenVector3dToJsonArrayERKN5Eigen6MatrixIdLi3ELi1ELi0ELi3ELi1EEERN4Json5ValueE(ptr noundef nonnull align 8 dereferenceable(24) %57, ptr noundef nonnull align 8 dereferenceable(40) %59)
  br i1 %60, label %62, label %61

61:                                               ; preds = %56
  store i1 false, ptr %3, align 1
  br label %63

62:                                               ; preds = %56
  store i1 true, ptr %3, align 1
  br label %63

63:                                               ; preds = %62, %61, %55, %49, %43, %29
  %64 = load i1, ptr %3, align 1
  ret i1 %64

65:                                               ; preds = %34, %30
  %66 = load ptr, ptr %7, align 8
  %67 = load i32, ptr %8, align 4
  %68 = insertvalue { ptr, i32 } poison, ptr %66, 0
  %69 = insertvalue { ptr, i32 } %68, i32 %67, 1
  resume { ptr, i32 } %69
}