; Function Attrs: mustprogress ssp uwtable
define noundef zeroext i1 @_ZNK6open3d13visualization14ViewParameters18ConvertToJsonValueERN4Json5ValueE(ptr noundef nonnull align 8 dereferenceable(144) %0, ptr noundef nonnull align 8 dereferenceable(40) %1) unnamed_addr #1 align 2 personality ptr @__gxx_personality_v0 {
  %3 = alloca %"class.Json::Value", align 8
  %4 = alloca %"class.Json::Value", align 8
  call void @llvm.lifetime.start.p0(i64 40, ptr nonnull %3) #13
  %5 = getelementptr inbounds nuw i8, ptr %0, i64 8
  %6 = load double, ptr %5, align 8, !tbaa !4
  call void @_ZN4Json5ValueC1Ed(ptr noundef nonnull align 8 dereferenceable(40) %3, double noundef %6)
  %7 = invoke noundef nonnull align 8 dereferenceable(40) ptr @_ZN4Json5ValueixEPKc(ptr noundef nonnull align 8 dereferenceable(40) %1, ptr noundef nonnull @.str)
          to label %8 unwind label %20

8:                                                ; preds = %2
  %9 = invoke noundef nonnull align 8 dereferenceable(40) ptr @_ZN4Json5ValueaSEOS0_(ptr noundef nonnull align 8 dereferenceable(40) %7, ptr noundef nonnull align 8 dereferenceable(40) %3)
          to label %10 unwind label %20

10:                                               ; preds = %8
  call void @_ZN4Json5ValueD1Ev(ptr noundef nonnull align 8 dereferenceable(40) %3) #13
  call void @llvm.lifetime.end.p0(i64 40, ptr nonnull %3) #13
  call void @llvm.lifetime.start.p0(i64 40, ptr nonnull %4) #13
  %11 = getelementptr inbounds nuw i8, ptr %0, i64 16
  %12 = load double, ptr %11, align 8, !tbaa !14
  call void @_ZN4Json5ValueC1Ed(ptr noundef nonnull align 8 dereferenceable(40) %4, double noundef %12)
  %13 = invoke noundef nonnull align 8 dereferenceable(40) ptr @_ZN4Json5ValueixEPKc(ptr noundef nonnull align 8 dereferenceable(40) %1, ptr noundef nonnull @.str.3)
          to label %14 unwind label %22

14:                                               ; preds = %10
  %15 = invoke noundef nonnull align 8 dereferenceable(40) ptr @_ZN4Json5ValueaSEOS0_(ptr noundef nonnull align 8 dereferenceable(40) %13, ptr noundef nonnull align 8 dereferenceable(40) %4)
          to label %16 unwind label %22

16:                                               ; preds = %14
  call void @_ZN4Json5ValueD1Ev(ptr noundef nonnull align 8 dereferenceable(40) %4) #13
  call void @llvm.lifetime.end.p0(i64 40, ptr nonnull %4) #13
  %17 = getelementptr inbounds nuw i8, ptr %0, i64 24
  %18 = call noundef nonnull align 8 dereferenceable(40) ptr @_ZN4Json5ValueixEPKc(ptr noundef nonnull align 8 dereferenceable(40) %1, ptr noundef nonnull @.str.4)
  %19 = call noundef zeroext i1 @_ZN6open3d7utility16IJsonConvertible24EigenVector3dToJsonArrayERKN5Eigen6MatrixIdLi3ELi1ELi0ELi3ELi1EEERN4Json5ValueE(ptr noundef nonnull align 8 dereferenceable(24) %17, ptr noundef nonnull align 8 dereferenceable(40) %18)
  br i1 %19, label %24, label %40

20:                                               ; preds = %8, %2
  %21 = landingpad { ptr, i32 }
          cleanup
  call void @_ZN4Json5ValueD1Ev(ptr noundef nonnull align 8 dereferenceable(40) %3) #13
  call void @llvm.lifetime.end.p0(i64 40, ptr nonnull %3) #13
  br label %41

22:                                               ; preds = %14, %10
  %23 = landingpad { ptr, i32 }
          cleanup
  call void @_ZN4Json5ValueD1Ev(ptr noundef nonnull align 8 dereferenceable(40) %4) #13
  call void @llvm.lifetime.end.p0(i64 40, ptr nonnull %4) #13
  br label %41

24:                                               ; preds = %16
  %25 = getelementptr inbounds nuw i8, ptr %0, i64 48
  %26 = call noundef nonnull align 8 dereferenceable(40) ptr @_ZN4Json5ValueixEPKc(ptr noundef nonnull align 8 dereferenceable(40) %1, ptr noundef nonnull @.str.5)
  %27 = call noundef zeroext i1 @_ZN6open3d7utility16IJsonConvertible24EigenVector3dToJsonArrayERKN5Eigen6MatrixIdLi3ELi1ELi0ELi3ELi1EEERN4Json5ValueE(ptr noundef nonnull align 8 dereferenceable(24) %25, ptr noundef nonnull align 8 dereferenceable(40) %26)
  br i1 %27, label %28, label %40

28:                                               ; preds = %24
  %29 = getelementptr inbounds nuw i8, ptr %0, i64 72
  %30 = call noundef nonnull align 8 dereferenceable(40) ptr @_ZN4Json5ValueixEPKc(ptr noundef nonnull align 8 dereferenceable(40) %1, ptr noundef nonnull @.str.6)
  %31 = call noundef zeroext i1 @_ZN6open3d7utility16IJsonConvertible24EigenVector3dToJsonArrayERKN5Eigen6MatrixIdLi3ELi1ELi0ELi3ELi1EEERN4Json5ValueE(ptr noundef nonnull align 8 dereferenceable(24) %29, ptr noundef nonnull align 8 dereferenceable(40) %30)
  br i1 %31, label %32, label %40

32:                                               ; preds = %28
  %33 = getelementptr inbounds nuw i8, ptr %0, i64 96
  %34 = call noundef nonnull align 8 dereferenceable(40) ptr @_ZN4Json5ValueixEPKc(ptr noundef nonnull align 8 dereferenceable(40) %1, ptr noundef nonnull @.str.7)
  %35 = call noundef zeroext i1 @_ZN6open3d7utility16IJsonConvertible24EigenVector3dToJsonArrayERKN5Eigen6MatrixIdLi3ELi1ELi0ELi3ELi1EEERN4Json5ValueE(ptr noundef nonnull align 8 dereferenceable(24) %33, ptr noundef nonnull align 8 dereferenceable(40) %34)
  br i1 %35, label %36, label %40

36:                                               ; preds = %32
  %37 = getelementptr inbounds nuw i8, ptr %0, i64 120
  %38 = call noundef nonnull align 8 dereferenceable(40) ptr @_ZN4Json5ValueixEPKc(ptr noundef nonnull align 8 dereferenceable(40) %1, ptr noundef nonnull @.str.8)
  %39 = call noundef zeroext i1 @_ZN6open3d7utility16IJsonConvertible24EigenVector3dToJsonArrayERKN5Eigen6MatrixIdLi3ELi1ELi0ELi3ELi1EEERN4Json5ValueE(ptr noundef nonnull align 8 dereferenceable(24) %37, ptr noundef nonnull align 8 dereferenceable(40) %38)
  br label %40

40:                                               ; preds = %36, %32, %28, %24, %16
  %.011 = phi i1 [ false, %16 ], [ false, %24 ], [ false, %28 ], [ false, %32 ], [ %39, %36 ]
  ret i1 %.011

41:                                               ; preds = %22, %20
  %.pn = phi { ptr, i32 } [ %23, %22 ], [ %21, %20 ]
  resume { ptr, i32 } %.pn
}